target datalayout = "e-m:e-p270:32:32-p271:32:32-p272:64:64-i64:64-i128:128-f80:128-n8:16:32:64-S128"
target triple = "x86_64-pc-linux-gnu"

%struct._Py_SourceLocation = type { i32, i32, i32, i32 }
%struct._PyJumpTargetLabel = type { i32 }
%struct._PyCfgBuilder = type { ptr, ptr, ptr, %struct._PyJumpTargetLabel }
%struct._PyCfgBasicblock = type { ptr, %struct._PyJumpTargetLabel, ptr, ptr, ptr, i32, i32, i64, i32, i32, i8 }
%struct._PyCfgInstruction = type { i32, i32, %struct._Py_SourceLocation, ptr, ptr }

@__const.basicblock_remove_redundant_nops.next_loc = private unnamed_addr constant %struct._Py_SourceLocation { i32 -1, i32 -1, i32 -1, i32 -1 }, align 4

; Function Attrs: nounwind uwtable
define internal ptr @next_nonempty_block(ptr noundef %0) #0 {
  %2 = alloca ptr, align 8
  store ptr %0, ptr %2, align 8, !tbaa !14
  br label %3

3:                                                ; preds = %13, %1
  %4 = load ptr, ptr %2, align 8, !tbaa !14
  %5 = icmp ne ptr %4, null
  br i1 %5, label %6, label %11

6:                                                ; preds = %3
  %7 = load ptr, ptr %2, align 8, !tbaa !14
  %8 = getelementptr inbounds nuw %struct._PyCfgBasicblock, ptr %7, i32 0, i32 5
  %9 = load i32, ptr %8, align 8, !tbaa !44
  %10 = icmp eq i32 %9, 0
  br label %11

11:                                               ; preds = %6, %3
  %12 = phi i1 [ false, %3 ], [ %10, %6 ]
  br i1 %12, label %13, label %17

13:                                               ; preds = %11
  %14 = load ptr, ptr %2, align 8, !tbaa !14
  %15 = getelementptr inbounds nuw %struct._PyCfgBasicblock, ptr %14, i32 0, i32 4
  %16 = load ptr, ptr %15, align 8, !tbaa !42
  store ptr %16, ptr %2, align 8, !tbaa !14
  br label %3, !llvm.loop !175

17:                                               ; preds = %11
  %18 = load ptr, ptr %2, align 8, !tbaa !14
  ret ptr %18
}

; Function Attrs: nounwind uwtable
define internal i32 @basicblock_remove_redundant_nops(ptr noundef %0) #0 {
  %2 = alloca ptr, align 8
  %3 = alloca i32, align 4
  %4 = alloca i32, align 4
  %5 = alloca i32, align 4
  %6 = alloca i32, align 4
  %7 = alloca i32, align 4
  %8 = alloca i32, align 4
  %9 = alloca ptr, align 8
  %10 = alloca %struct._Py_SourceLocation, align 4
  %11 = alloca i32, align 4
  %12 = alloca ptr, align 8
  %13 = alloca i32, align 4
  store ptr %0, ptr %2, align 8, !tbaa !14
  call void @llvm.lifetime.start.p0(i64 4, ptr %3) #7
  store i32 0, ptr %3, align 4, !tbaa !19
  call void @llvm.lifetime.start.p0(i64 4, ptr %4) #7
  store i32 -1, ptr %4, align 4, !tbaa !19
  call void @llvm.lifetime.start.p0(i64 4, ptr %5) #7
  store i32 0, ptr %5, align 4, !tbaa !19
  br label %14

14:                                               ; preds = %175, %1
  %15 = load i32, ptr %5, align 4, !tbaa !19
  %16 = load ptr, ptr %2, align 8, !tbaa !14
  %17 = getelementptr inbounds nuw %struct._PyCfgBasicblock, ptr %16, i32 0, i32 5
  %18 = load i32, ptr %17, align 8, !tbaa !44
  %19 = icmp slt i32 %15, %18
  br i1 %19, label %21, label %20

20:                                               ; preds = %14
  store i32 2, ptr %6, align 4
  call void @llvm.lifetime.end.p0(i64 4, ptr %5) #7
  br label %178

21:                                               ; preds = %14
  call void @llvm.lifetime.start.p0(i64 4, ptr %7) #7
  %22 = load ptr, ptr %2, align 8, !tbaa !14
  %23 = getelementptr inbounds nuw %struct._PyCfgBasicblock, ptr %22, i32 0, i32 3
  %24 = load ptr, ptr %23, align 8, !tbaa !20
  %25 = load i32, ptr %5, align 4, !tbaa !19
  %26 = sext i32 %25 to i64
  %27 = getelementptr %struct._PyCfgInstruction, ptr %24, i64 %26
  %28 = getelementptr inbounds nuw %struct._PyCfgInstruction, ptr %27, i32 0, i32 2
  %29 = getelementptr inbounds nuw %struct._Py_SourceLocation, ptr %28, i32 0, i32 0
  %30 = load i32, ptr %29, align 8, !tbaa !144
  store i32 %30, ptr %7, align 4, !tbaa !19
  %31 = load ptr, ptr %2, align 8, !tbaa !14
  %32 = getelementptr inbounds nuw %struct._PyCfgBasicblock, ptr %31, i32 0, i32 3
  %33 = load ptr, ptr %32, align 8, !tbaa !20
  %34 = load i32, ptr %5, align 4, !tbaa !19
  %35 = sext i32 %34 to i64
  %36 = getelementptr %struct._PyCfgInstruction, ptr %33, i64 %35
  %37 = getelementptr inbounds nuw %struct._PyCfgInstruction, ptr %36, i32 0, i32 0
  %38 = load i32, ptr %37, align 8, !tbaa !30
  %39 = icmp eq i32 %38, 28
  br i1 %39, label %40, label %151

40:                                               ; preds = %21
  %41 = load i32, ptr %7, align 4, !tbaa !19
  %42 = icmp slt i32 %41, 0
  br i1 %42, label %43, label %44

43:                                               ; preds = %40
  store i32 4, ptr %6, align 4
  br label %172

44:                                               ; preds = %40
  %45 = load i32, ptr %4, align 4, !tbaa !19
  %46 = load i32, ptr %7, align 4, !tbaa !19
  %47 = icmp eq i32 %45, %46
  br i1 %47, label %48, label %49

48:                                               ; preds = %44
  store i32 4, ptr %6, align 4
  br label %172

49:                                               ; preds = %44
  %50 = load i32, ptr %5, align 4, !tbaa !19
  %51 = load ptr, ptr %2, align 8, !tbaa !14
  %52 = getelementptr inbounds nuw %struct._PyCfgBasicblock, ptr %51, i32 0, i32 5
  %53 = load i32, ptr %52, align 8, !tbaa !44
  %54 = sub i32 %53, 1
  %55 = icmp slt i32 %50, %54
  br i1 %55, label %56, label %94

56:                                               ; preds = %49
  call void @llvm.lifetime.start.p0(i64 4, ptr %8) #7
  %57 = load ptr, ptr %2, align 8, !tbaa !14
  %58 = getelementptr inbounds nuw %struct._PyCfgBasicblock, ptr %57, i32 0, i32 3
  %59 = load ptr, ptr %58, align 8, !tbaa !20
  %60 = load i32, ptr %5, align 4, !tbaa !19
  %61 = add i32 %60, 1
  %62 = sext i32 %61 to i64
  %63 = getelementptr %struct._PyCfgInstruction, ptr %59, i64 %62
  %64 = getelementptr inbounds nuw %struct._PyCfgInstruction, ptr %63, i32 0, i32 2
  %65 = getelementptr inbounds nuw %struct._Py_SourceLocation, ptr %64, i32 0, i32 0
  %66 = load i32, ptr %65, align 8, !tbaa !144
  store i32 %66, ptr %8, align 4, !tbaa !19
  %67 = load i32, ptr %8, align 4, !tbaa !19
  %68 = load i32, ptr %7, align 4, !tbaa !19
  %69 = icmp eq i32 %67, %68
  br i1 %69, label %70, label %71

70:                                               ; preds = %56
  store i32 4, ptr %6, align 4
  br label %91

71:                                               ; preds = %56
  %72 = load i32, ptr %8, align 4, !tbaa !19
  %73 = icmp slt i32 %72, 0
  br i1 %73, label %74, label %90

74:                                               ; preds = %71
  %75 = load ptr, ptr %2, align 8, !tbaa !14
  %76 = getelementptr inbounds nuw %struct._PyCfgBasicblock, ptr %75, i32 0, i32 3
  %77 = load ptr, ptr %76, align 8, !tbaa !20
  %78 = load i32, ptr %5, align 4, !tbaa !19
  %79 = add i32 %78, 1
  %80 = sext i32 %79 to i64
  %81 = getelementptr %struct._PyCfgInstruction, ptr %77, i64 %80
  %82 = getelementptr inbounds nuw %struct._PyCfgInstruction, ptr %81, i32 0, i32 2
  %83 = load ptr, ptr %2, align 8, !tbaa !14
  %84 = getelementptr inbounds nuw %struct._PyCfgBasicblock, ptr %83, i32 0, i32 3
  %85 = load ptr, ptr %84, align 8, !tbaa !20
  %86 = load i32, ptr %5, align 4, !tbaa !19
  %87 = sext i32 %86 to i64
  %88 = getelementptr %struct._PyCfgInstruction, ptr %85, i64 %87
  %89 = getelementptr inbounds nuw %struct._PyCfgInstruction, ptr %88, i32 0, i32 2
  call void @llvm.memcpy.p0.p0.i64(ptr align 8 %82, ptr align 8 %89, i64 16, i1 false), !tbaa.struct !35
  store i32 4, ptr %6, align 4
  br label %91

90:                                               ; preds = %71
  store i32 0, ptr %6, align 4
  br label %91

91:                                               ; preds = %90, %74, %70
  call void @llvm.lifetime.end.p0(i64 4, ptr %8) #7
  %92 = load i32, ptr %6, align 4
  switch i32 %92, label %172 [
    i32 0, label %93
  ]

93:                                               ; preds = %91
  br label %150

94:                                               ; preds = %49
  call void @llvm.lifetime.start.p0(i64 8, ptr %9) #7
  %95 = load ptr, ptr %2, align 8, !tbaa !14
  %96 = getelementptr inbounds nuw %struct._PyCfgBasicblock, ptr %95, i32 0, i32 4
  %97 = load ptr, ptr %96, align 8, !tbaa !42
  %98 = call ptr @next_nonempty_block(ptr noundef %97)
  store ptr %98, ptr %9, align 8, !tbaa !14
  %99 = load ptr, ptr %9, align 8, !tbaa !14
  %100 = icmp ne ptr %99, null
  br i1 %100, label %101, label %146

101:                                              ; preds = %94
  call void @llvm.lifetime.start.p0(i64 16, ptr %10) #7
  call void @llvm.memcpy.p0.p0.i64(ptr align 4 %10, ptr align 4 @__const.basicblock_remove_redundant_nops.next_loc, i64 16, i1 false)
  call void @llvm.lifetime.start.p0(i64 4, ptr %11) #7
  store i32 0, ptr %11, align 4, !tbaa !19
  br label %102

102:                                              ; preds = %132, %101
  %103 = load i32, ptr %11, align 4, !tbaa !19
  %104 = load ptr, ptr %9, align 8, !tbaa !14
  %105 = getelementptr inbounds nuw %struct._PyCfgBasicblock, ptr %104, i32 0, i32 5
  %106 = load i32, ptr %105, align 8, !tbaa !44
  %107 = icmp slt i32 %103, %106
  br i1 %107, label %109, label %108

108:                                              ; preds = %102
  store i32 5, ptr %6, align 4
  br label %135

109:                                              ; preds = %102
  call void @llvm.lifetime.start.p0(i64 8, ptr %12) #7
  %110 = load ptr, ptr %9, align 8, !tbaa !14
  %111 = getelementptr inbounds nuw %struct._PyCfgBasicblock, ptr %110, i32 0, i32 3
  %112 = load ptr, ptr %111, align 8, !tbaa !20
  %113 = load i32, ptr %11, align 4, !tbaa !19
  %114 = sext i32 %113 to i64
  %115 = getelementptr %struct._PyCfgInstruction, ptr %112, i64 %114
  store ptr %115, ptr %12, align 8, !tbaa !29
  %116 = load ptr, ptr %12, align 8, !tbaa !29
  %117 = getelementptr inbounds nuw %struct._PyCfgInstruction, ptr %116, i32 0, i32 0
  %118 = load i32, ptr %117, align 8, !tbaa !30
  %119 = icmp eq i32 %118, 28
  br i1 %119, label %120, label %127

120:                                              ; preds = %109
  %121 = load ptr, ptr %12, align 8, !tbaa !29
  %122 = getelementptr inbounds nuw %struct._PyCfgInstruction, ptr %121, i32 0, i32 2
  %123 = getelementptr inbounds nuw %struct._Py_SourceLocation, ptr %122, i32 0, i32 0
  %124 = load i32, ptr %123, align 8, !tbaa !144
  %125 = icmp eq i32 %124, -1
  br i1 %125, label %126, label %127

126:                                              ; preds = %120
  store i32 7, ptr %6, align 4
  br label %130

127:                                              ; preds = %120, %109
  %128 = load ptr, ptr %12, align 8, !tbaa !29
  %129 = getelementptr inbounds nuw %struct._PyCfgInstruction, ptr %128, i32 0, i32 2
  call void @llvm.memcpy.p0.p0.i64(ptr align 4 %10, ptr align 8 %129, i64 16, i1 false), !tbaa.struct !35
  store i32 5, ptr %6, align 4
  br label %130

130:                                              ; preds = %127, %126
  call void @llvm.lifetime.end.p0(i64 8, ptr %12) #7
  %131 = load i32, ptr %6, align 4
  switch i32 %131, label %135 [
    i32 7, label %132
  ]

132:                                              ; preds = %130
  %133 = load i32, ptr %11, align 4, !tbaa !19
  %134 = add i32 %133, 1
  store i32 %134, ptr %11, align 4, !tbaa !19
  br label %102, !llvm.loop !172

135:                                              ; preds = %130, %108
  call void @llvm.lifetime.end.p0(i64 4, ptr %11) #7
  br label %136

136:                                              ; preds = %135
  %137 = load i32, ptr %7, align 4, !tbaa !19
  %138 = getelementptr inbounds nuw %struct._Py_SourceLocation, ptr %10, i32 0, i32 0
  %139 = load i32, ptr %138, align 4, !tbaa !173
  %140 = icmp eq i32 %137, %139
  br i1 %140, label %141, label %142

141:                                              ; preds = %136
  store i32 4, ptr %6, align 4
  br label %143

142:                                              ; preds = %136
  store i32 0, ptr %6, align 4
  br label %143

143:                                              ; preds = %142, %141
  call void @llvm.lifetime.end.p0(i64 16, ptr %10) #7
  %144 = load i32, ptr %6, align 4
  switch i32 %144, label %147 [
    i32 0, label %145
  ]

145:                                              ; preds = %143
  br label %146

146:                                              ; preds = %145, %94
  store i32 0, ptr %6, align 4
  br label %147

147:                                              ; preds = %146, %143
  call void @llvm.lifetime.end.p0(i64 8, ptr %9) #7
  %148 = load i32, ptr %6, align 4
  switch i32 %148, label %172 [
    i32 0, label %149
  ]

149:                                              ; preds = %147
  br label %150

150:                                              ; preds = %149, %93
  br label %151

151:                                              ; preds = %150, %21
  %152 = load i32, ptr %3, align 4, !tbaa !19
  %153 = load i32, ptr %5, align 4, !tbaa !19
  %154 = icmp ne i32 %152, %153
  br i1 %154, label %155, label %168

155:                                              ; preds = %151
  %156 = load ptr, ptr %2, align 8, !tbaa !14
  %157 = getelementptr inbounds nuw %struct._PyCfgBasicblock, ptr %156, i32 0, i32 3
  %158 = load ptr, ptr %157, align 8, !tbaa !20
  %159 = load i32, ptr %3, align 4, !tbaa !19
  %160 = sext i32 %159 to i64
  %161 = getelementptr %struct._PyCfgInstruction, ptr %158, i64 %160
  %162 = load ptr, ptr %2, align 8, !tbaa !14
  %163 = getelementptr inbounds nuw %struct._PyCfgBasicblock, ptr %162, i32 0, i32 3
  %164 = load ptr, ptr %163, align 8, !tbaa !20
  %165 = load i32, ptr %5, align 4, !tbaa !19
  %166 = sext i32 %165 to i64
  %167 = getelementptr %struct._PyCfgInstruction, ptr %164, i64 %166
  call void @llvm.memcpy.p0.p0.i64(ptr align 8 %161, ptr align 8 %167, i64 40, i1 false), !tbaa.struct !152
  br label %168

168:                                              ; preds = %155, %151
  %169 = load i32, ptr %3, align 4, !tbaa !19
  %170 = add i32 %169, 1
  store i32 %170, ptr %3, align 4, !tbaa !19
  %171 = load i32, ptr %7, align 4, !tbaa !19
  store i32 %171, ptr %4, align 4, !tbaa !19
  store i32 0, ptr %6, align 4
  br label %172

172:                                              ; preds = %168, %147, %91, %48, %43
  call void @llvm.lifetime.end.p0(i64 4, ptr %7) #7
  %173 = load i32, ptr %6, align 4
  switch i32 %173, label %188 [
    i32 0, label %174
    i32 4, label %175
  ]

174:                                              ; preds = %172
  br label %175

175:                                              ; preds = %174, %172
  %176 = load i32, ptr %5, align 4, !tbaa !19
  %177 = add i32 %176, 1
  store i32 %177, ptr %5, align 4, !tbaa !19
  br label %14, !llvm.loop !174

178:                                              ; preds = %20
  call void @llvm.lifetime.start.p0(i64 4, ptr %13) #7
  %179 = load ptr, ptr %2, align 8, !tbaa !14
  %180 = getelementptr inbounds nuw %struct._PyCfgBasicblock, ptr %179, i32 0, i32 5
  %181 = load i32, ptr %180, align 8, !tbaa !44
  %182 = load i32, ptr %3, align 4, !tbaa !19
  %183 = sub i32 %181, %182
  store i32 %183, ptr %13, align 4, !tbaa !19
  %184 = load i32, ptr %3, align 4, !tbaa !19
  %185 = load ptr, ptr %2, align 8, !tbaa !14
  %186 = getelementptr inbounds nuw %struct._PyCfgBasicblock, ptr %185, i32 0, i32 5
  store i32 %184, ptr %186, align 8, !tbaa !44
  %187 = load i32, ptr %13, align 4, !tbaa !19
  store i32 1, ptr %6, align 4
  call void @llvm.lifetime.end.p0(i64 4, ptr %13) #7
  call void @llvm.lifetime.end.p0(i64 4, ptr %4) #7
  call void @llvm.lifetime.end.p0(i64 4, ptr %3) #7
  ret i32 %187

188:                                              ; preds = %172
  unreachable
}

; Function Attrs: nounwind uwtable
define internal i32 @remove_redundant_nops(ptr noundef %0) #0 {
  %2 = alloca i32, align 4
  %3 = alloca ptr, align 8
  %4 = alloca i32, align 4
  %5 = alloca ptr, align 8
  %6 = alloca i32, align 4
  %7 = alloca i32, align 4
  store ptr %0, ptr %3, align 8, !tbaa !4
  call void @llvm.lifetime.start.p0(i64 4, ptr %4) #7
  store i32 0, ptr %4, align 4, !tbaa !19
  call void @llvm.lifetime.start.p0(i64 8, ptr %5) #7
  %8 = load ptr, ptr %3, align 8, !tbaa !4
  %9 = getelementptr inbounds nuw %struct._PyCfgBuilder, ptr %8, i32 0, i32 0
  %10 = load ptr, ptr %9, align 8, !tbaa !15
  store ptr %10, ptr %5, align 8, !tbaa !14
  br label %11

11:                                               ; preds = %28, %1
  %12 = load ptr, ptr %5, align 8, !tbaa !14
  %13 = icmp ne ptr %12, null
  br i1 %13, label %15, label %14

14:                                               ; preds = %11
  store i32 2, ptr %6, align 4
  br label %32

15:                                               ; preds = %11
  call void @llvm.lifetime.start.p0(i64 4, ptr %7) #7
  %16 = load ptr, ptr %5, align 8, !tbaa !14
  %17 = call i32 @basicblock_remove_redundant_nops(ptr noundef %16)
  store i32 %17, ptr %7, align 4, !tbaa !19
  %18 = load i32, ptr %7, align 4, !tbaa !19
  %19 = icmp eq i32 %18, -1
  br i1 %19, label %20, label %21

20:                                               ; preds = %15
  store i32 -1, ptr %2, align 4
  store i32 1, ptr %6, align 4
  br label %25

21:                                               ; preds = %15
  %22 = load i32, ptr %7, align 4, !tbaa !19
  %23 = load i32, ptr %4, align 4, !tbaa !19
  %24 = add i32 %23, %22
  store i32 %24, ptr %4, align 4, !tbaa !19
  store i32 0, ptr %6, align 4
  br label %25

25:                                               ; preds = %21, %20
  call void @llvm.lifetime.end.p0(i64 4, ptr %7) #7
  %26 = load i32, ptr %6, align 4
  switch i32 %26, label %32 [
    i32 0, label %27
  ]

27:                                               ; preds = %25
  br label %28

28:                                               ; preds = %27
  %29 = load ptr, ptr %5, align 8, !tbaa !14
  %30 = getelementptr inbounds nuw %struct._PyCfgBasicblock, ptr %29, i32 0, i32 4
  %31 = load ptr, ptr %30, align 8, !tbaa !42
  store ptr %31, ptr %5, align 8, !tbaa !14
  br label %11, !llvm.loop !176

32:                                               ; preds = %25, %14
  call void @llvm.lifetime.end.p0(i64 8, ptr %5) #7
  %33 = load i32, ptr %6, align 4
  switch i32 %33, label %36 [
    i32 2, label %34
  ]

34:                                               ; preds = %32
  %35 = load i32, ptr %4, align 4, !tbaa !19
  store i32 %35, ptr %2, align 4
  store i32 1, ptr %6, align 4
  br label %36

36:                                               ; preds = %34, %32
  call void @llvm.lifetime.end.p0(i64 4, ptr %4) #7
  %37 = load i32, ptr %2, align 4
  ret i32 %37
}