; Function Attrs: nofree norecurse nosync nounwind memory(readwrite, inaccessiblemem: none) uwtable
define internal fastcc i32 @remove_redundant_nops(ptr noundef readonly captures(none) %0) unnamed_addr #5 {
  %.01324 = load ptr, ptr %0, align 8, !tbaa !23
  %.not25 = icmp eq ptr %.01324, null
  br i1 %.not25, label %._crit_edge, label %.lr.ph

.lr.ph:                                           ; preds = %1, %58
  %.01327 = phi ptr [ %.013, %58 ], [ %.01324, %1 ]
  %.01426 = phi i32 [ %59, %58 ], [ 0, %1 ]
  %2 = getelementptr inbounds nuw i8, ptr %.01327, i64 40
  %3 = load i32, ptr %2, align 8, !tbaa !25
  %4 = icmp sgt i32 %3, 0
  br i1 %4, label %.lr.ph81.i, label %basicblock_remove_redundant_nops.exit

.lr.ph81.i:                                       ; preds = %.lr.ph
  %5 = getelementptr inbounds nuw i8, ptr %.01327, i64 24
  %6 = getelementptr inbounds nuw i8, ptr %.01327, i64 32
  br label %7

7:                                                ; preds = %.critedge.i, %.lr.ph81.i
  %indvars.iv87.i = phi i64 [ 0, %.lr.ph81.i ], [ %indvars.iv.next88.i, %.critedge.i ]
  %8 = phi i32 [ %3, %.lr.ph81.i ], [ %54, %.critedge.i ]
  %.080.i = phi i32 [ 0, %.lr.ph81.i ], [ %.1.i, %.critedge.i ]
  %.05279.i = phi i32 [ -1, %.lr.ph81.i ], [ %.153.i, %.critedge.i ]
  %9 = load ptr, ptr %5, align 8, !tbaa !20
  %10 = getelementptr %struct._PyCfgInstruction, ptr %9, i64 %indvars.iv87.i
  %11 = getelementptr inbounds nuw i8, ptr %10, i64 8
  %12 = load i32, ptr %11, align 8, !tbaa !44
  %13 = load i32, ptr %10, align 8, !tbaa !26
  %14 = icmp eq i32 %13, 28
  br i1 %14, label %15, label %.thread70.i

15:                                               ; preds = %7
  %16 = icmp slt i32 %12, 0
  %17 = icmp eq i32 %.05279.i, %12
  %or.cond.i = select i1 %16, i1 true, i1 %17
  br i1 %or.cond.i, label %.critedge.i, label %18

18:                                               ; preds = %15
  %19 = add nsw i32 %8, -1
  %20 = sext i32 %19 to i64
  %21 = icmp slt i64 %indvars.iv87.i, %20
  br i1 %21, label %22, label %30

22:                                               ; preds = %18
  %23 = add nuw nsw i64 %indvars.iv87.i, 1
  %24 = getelementptr %struct._PyCfgInstruction, ptr %9, i64 %23, i32 2
  %25 = load i32, ptr %24, align 8, !tbaa !44
  %26 = icmp eq i32 %25, %12
  br i1 %26, label %.critedge.i, label %27

27:                                               ; preds = %22
  %28 = icmp slt i32 %25, 0
  br i1 %28, label %29, label %.thread70.i

29:                                               ; preds = %27
  tail call void @llvm.memcpy.p0.p0.i64(ptr noundef nonnull align 8 dereferenceable(16) %24, ptr noundef nonnull align 8 dereferenceable(16) %11, i64 16, i1 false), !tbaa.struct !73
  br label %.critedge.i

30:                                               ; preds = %18
  %31 = load ptr, ptr %6, align 8, !tbaa !34
  %.not4.i.i = icmp eq ptr %31, null
  br i1 %.not4.i.i, label %.thread70.i, label %.lr.ph.i.i

.lr.ph.i.i:                                       ; preds = %30, %38
  %.05.i.i = phi ptr [ %40, %38 ], [ %31, %30 ]
  %32 = getelementptr inbounds nuw i8, ptr %.05.i.i, i64 40
  %33 = load i32, ptr %32, align 8, !tbaa !25
  %34 = icmp eq i32 %33, 0
  br i1 %34, label %38, label %next_nonempty_block.exit.preheader.i

next_nonempty_block.exit.preheader.i:             ; preds = %.lr.ph.i.i
  %35 = icmp sgt i32 %33, 0
  br i1 %35, label %.lr.ph.i, label %.loopexit.i

.lr.ph.i:                                         ; preds = %next_nonempty_block.exit.preheader.i
  %36 = getelementptr inbounds nuw i8, ptr %.05.i.i, i64 24
  %37 = load ptr, ptr %36, align 8, !tbaa !20
  %wide.trip.count.i = zext nneg i32 %33 to i64
  br label %41

38:                                               ; preds = %.lr.ph.i.i
  %39 = getelementptr inbounds nuw i8, ptr %.05.i.i, i64 32
  %40 = load ptr, ptr %39, align 8, !tbaa !34
  %.not.i.i = icmp eq ptr %40, null
  br i1 %.not.i.i, label %.thread70.i, label %.lr.ph.i.i, !llvm.loop !74

next_nonempty_block.exit.i:                       ; preds = %41
  %indvars.iv.next.i = add nuw nsw i64 %indvars.iv.i, 1
  %exitcond.not.i = icmp eq i64 %indvars.iv.next.i, %wide.trip.count.i
  br i1 %exitcond.not.i, label %.loopexit.i, label %41, !llvm.loop !75

41:                                               ; preds = %next_nonempty_block.exit.i, %.lr.ph.i
  %indvars.iv.i = phi i64 [ 0, %.lr.ph.i ], [ %indvars.iv.next.i, %next_nonempty_block.exit.i ]
  %42 = getelementptr %struct._PyCfgInstruction, ptr %37, i64 %indvars.iv.i
  %43 = load i32, ptr %42, align 8, !tbaa !26
  %44 = icmp eq i32 %43, 28
  %45 = getelementptr inbounds nuw i8, ptr %42, i64 8
  %46 = load i32, ptr %45, align 8, !tbaa !17
  %47 = icmp eq i32 %46, -1
  %or.cond = select i1 %44, i1 %47, i1 false
  br i1 %or.cond, label %next_nonempty_block.exit.i, label %.loopexit.i

.loopexit.i:                                      ; preds = %next_nonempty_block.exit.i, %41, %next_nonempty_block.exit.preheader.i
  %.sroa.0.1.i = phi i32 [ -1, %next_nonempty_block.exit.preheader.i ], [ -1, %next_nonempty_block.exit.i ], [ %46, %41 ]
  %.not63.i = icmp eq i32 %12, %.sroa.0.1.i
  br i1 %.not63.i, label %.critedge.i, label %.thread70.i

.thread70.i:                                      ; preds = %38, %.loopexit.i, %30, %27, %7
  %48 = zext i32 %.080.i to i64
  %.not64.i = icmp eq i64 %indvars.iv87.i, %48
  br i1 %.not64.i, label %52, label %49

49:                                               ; preds = %.thread70.i
  %50 = sext i32 %.080.i to i64
  %51 = getelementptr %struct._PyCfgInstruction, ptr %9, i64 %50
  tail call void @llvm.memcpy.p0.p0.i64(ptr noundef nonnull align 8 dereferenceable(40) %51, ptr noundef nonnull align 8 dereferenceable(40) %10, i64 40, i1 false), !tbaa.struct !45
  br label %52

52:                                               ; preds = %49, %.thread70.i
  %53 = add i32 %.080.i, 1
  br label %.critedge.i

.critedge.i:                                      ; preds = %52, %.loopexit.i, %29, %22, %15
  %.153.i = phi i32 [ %12, %52 ], [ %.05279.i, %15 ], [ %.05279.i, %22 ], [ %.05279.i, %29 ], [ %.05279.i, %.loopexit.i ]
  %.1.i = phi i32 [ %53, %52 ], [ %.080.i, %15 ], [ %.080.i, %22 ], [ %.080.i, %29 ], [ %.080.i, %.loopexit.i ]
  %indvars.iv.next88.i = add nuw nsw i64 %indvars.iv87.i, 1
  %54 = load i32, ptr %2, align 8, !tbaa !25
  %55 = sext i32 %54 to i64
  %56 = icmp slt i64 %indvars.iv.next88.i, %55
  br i1 %56, label %7, label %basicblock_remove_redundant_nops.exit, !llvm.loop !76

basicblock_remove_redundant_nops.exit:            ; preds = %.critedge.i, %.lr.ph
  %.0.lcssa.i = phi i32 [ 0, %.lr.ph ], [ %.1.i, %.critedge.i ]
  %.lcssa74.i = phi i32 [ %3, %.lr.ph ], [ %54, %.critedge.i ]
  %57 = sub i32 %.lcssa74.i, %.0.lcssa.i
  store i32 %.0.lcssa.i, ptr %2, align 8, !tbaa !25
  %.not18 = icmp eq i32 %57, -1
  br i1 %.not18, label %._crit_edge, label %58

58:                                               ; preds = %basicblock_remove_redundant_nops.exit
  %59 = add i32 %57, %.01426
  %60 = getelementptr inbounds nuw i8, ptr %.01327, i64 32
  %.013 = load ptr, ptr %60, align 8, !tbaa !23
  %.not = icmp eq ptr %.013, null
  br i1 %.not, label %._crit_edge, label %.lr.ph, !llvm.loop !179

._crit_edge:                                      ; preds = %basicblock_remove_redundant_nops.exit, %58, %1
  %spec.select = phi i32 [ 0, %1 ], [ %59, %58 ], [ -1, %basicblock_remove_redundant_nops.exit ]
  ret i32 %spec.select
}